target datalayout = "e-m:e-p270:32:32-p271:32:32-p272:64:64-i64:64-i128:128-f80:128-n8:16:32:64-S128"
target triple = "x86_64-pc-linux-gnu"

%struct.opj_j2k = type { i32, %union.anon, ptr, ptr, %struct.opj_cp, ptr, ptr, ptr, i32, ptr, ptr, i32, i32, i32 }
%union.anon = type { %struct.opj_j2k_dec }
%struct.opj_j2k_dec = type { i32, ptr, ptr, i32, i32, i32, i32, i32, i32, i32, i64, i32, i32, ptr, %struct.opj_j2k_tlm_info, i32, i32, ptr, i8 }
%struct.opj_j2k_tlm_info = type { i32, ptr, i32 }
%struct.opj_cp = type { i16, i32, i32, i32, i32, ptr, i32, i32, i32, ptr, ptr, i32, i32, ptr, ptr, ptr, i32, i32, i32, ptr, %union.anon.0, i32, i8 }
%union.anon.0 = type { %struct.opj_encoding_param }
%struct.opj_encoding_param = type { i32, i32, ptr, i8, i32, i8 }
%struct.opj_poc = type { i32, i32, i32, i32, i32, i32, i32, i32, i32, i32, [5 x i8], i32, i32, i32, i32, i32, i32, i32, i32, i32, i32, i32, i32, i32, i32, i32, i32, i32, i32, i32, i32, i32, i32, i32, i32, i32 }
%struct.opj_tcp = type { i32, i32, i32, i32, i32, [100 x float], i32, [32 x %struct.opj_poc], i32, ptr, ptr, ptr, i32, i32, [100 x float], ptr, i32, i32, ptr, i32, ptr, ptr, ptr, ptr, i32, i32, ptr, i32, i32, i8 }
%struct.opj_tccp = type { i32, i32, i32, i32, i32, i32, i32, [97 x %struct.opj_stepsize], i32, i32, [33 x i32], [33 x i32], i32 }
%struct.opj_stepsize = type { i32, i32 }

@.str.311 = private unnamed_addr constant [35 x i8] c"Error writing SPCod SPCoc element\0A\00", align 1

; Function Attrs: nounwind uwtable
define internal i32 @opj_j2k_write_SPCod_SPCoc(ptr noundef %0, i32 noundef %1, i32 noundef %2, ptr noundef %3, ptr noundef %4, ptr noundef %5) #0 {
  %7 = alloca i32, align 4
  %8 = alloca ptr, align 8
  %9 = alloca i32, align 4
  %10 = alloca i32, align 4
  %11 = alloca ptr, align 8
  %12 = alloca ptr, align 8
  %13 = alloca ptr, align 8
  %14 = alloca i32, align 4
  %15 = alloca ptr, align 8
  %16 = alloca ptr, align 8
  %17 = alloca ptr, align 8
  %18 = alloca i32, align 4
  store ptr %0, ptr %8, align 8, !tbaa !14
  store i32 %1, ptr %9, align 4, !tbaa !3
  store i32 %2, ptr %10, align 4, !tbaa !3
  store ptr %3, ptr %11, align 8, !tbaa !44
  store ptr %4, ptr %12, align 8, !tbaa !134
  store ptr %5, ptr %13, align 8, !tbaa !48
  call void @llvm.lifetime.start.p0(i64 4, ptr %14) #10
  call void @llvm.lifetime.start.p0(i64 8, ptr %15) #10
  store ptr null, ptr %15, align 8, !tbaa !50
  call void @llvm.lifetime.start.p0(i64 8, ptr %16) #10
  store ptr null, ptr %16, align 8, !tbaa !103
  call void @llvm.lifetime.start.p0(i64 8, ptr %17) #10
  store ptr null, ptr %17, align 8, !tbaa !138
  %19 = load ptr, ptr %8, align 8, !tbaa !14
  %20 = getelementptr inbounds nuw %struct.opj_j2k, ptr %19, i32 0, i32 4
  store ptr %20, ptr %15, align 8, !tbaa !50
  %21 = load ptr, ptr %15, align 8, !tbaa !50
  %22 = getelementptr inbounds nuw %struct.opj_cp, ptr %21, i32 0, i32 19
  %23 = load ptr, ptr %22, align 8, !tbaa !102
  %24 = load i32, ptr %9, align 4, !tbaa !3
  %25 = zext i32 %24 to i64
  %26 = getelementptr inbounds nuw %struct.opj_tcp, ptr %23, i64 %25
  store ptr %26, ptr %16, align 8, !tbaa !103
  %27 = load ptr, ptr %16, align 8, !tbaa !103
  %28 = getelementptr inbounds nuw %struct.opj_tcp, ptr %27, i32 0, i32 15
  %29 = load ptr, ptr %28, align 8, !tbaa !131
  %30 = load i32, ptr %10, align 4, !tbaa !3
  %31 = zext i32 %30 to i64
  %32 = getelementptr inbounds nuw %struct.opj_tccp, ptr %29, i64 %31
  store ptr %32, ptr %17, align 8, !tbaa !138
  %33 = load ptr, ptr %12, align 8, !tbaa !134
  %34 = load i32, ptr %33, align 4, !tbaa !3
  %35 = icmp ult i32 %34, 5
  br i1 %35, label %36, label %39

36:                                               ; preds = %6
  %37 = load ptr, ptr %13, align 8, !tbaa !48
  %38 = call i32 (ptr, i32, ptr, ...) @opj_event_msg(ptr noundef %37, i32 noundef 1, ptr noundef @.str.311)
  store i32 0, ptr %7, align 4
  store i32 1, ptr %18, align 4
  br label %129

39:                                               ; preds = %6
  %40 = load ptr, ptr %11, align 8, !tbaa !44
  %41 = load ptr, ptr %17, align 8, !tbaa !138
  %42 = getelementptr inbounds nuw %struct.opj_tccp, ptr %41, i32 0, i32 1
  %43 = load i32, ptr %42, align 4, !tbaa !146
  %44 = sub i32 %43, 1
  call void @opj_write_bytes_LE(ptr noundef %40, i32 noundef %44, i32 noundef 1)
  %45 = load ptr, ptr %11, align 8, !tbaa !44
  %46 = getelementptr inbounds nuw i8, ptr %45, i32 1
  store ptr %46, ptr %11, align 8, !tbaa !44
  %47 = load ptr, ptr %11, align 8, !tbaa !44
  %48 = load ptr, ptr %17, align 8, !tbaa !138
  %49 = getelementptr inbounds nuw %struct.opj_tccp, ptr %48, i32 0, i32 2
  %50 = load i32, ptr %49, align 4, !tbaa !147
  %51 = sub i32 %50, 2
  call void @opj_write_bytes_LE(ptr noundef %47, i32 noundef %51, i32 noundef 1)
  %52 = load ptr, ptr %11, align 8, !tbaa !44
  %53 = getelementptr inbounds nuw i8, ptr %52, i32 1
  store ptr %53, ptr %11, align 8, !tbaa !44
  %54 = load ptr, ptr %11, align 8, !tbaa !44
  %55 = load ptr, ptr %17, align 8, !tbaa !138
  %56 = getelementptr inbounds nuw %struct.opj_tccp, ptr %55, i32 0, i32 3
  %57 = load i32, ptr %56, align 4, !tbaa !148
  %58 = sub i32 %57, 2
  call void @opj_write_bytes_LE(ptr noundef %54, i32 noundef %58, i32 noundef 1)
  %59 = load ptr, ptr %11, align 8, !tbaa !44
  %60 = getelementptr inbounds nuw i8, ptr %59, i32 1
  store ptr %60, ptr %11, align 8, !tbaa !44
  %61 = load ptr, ptr %11, align 8, !tbaa !44
  %62 = load ptr, ptr %17, align 8, !tbaa !138
  %63 = getelementptr inbounds nuw %struct.opj_tccp, ptr %62, i32 0, i32 4
  %64 = load i32, ptr %63, align 4, !tbaa !150
  call void @opj_write_bytes_LE(ptr noundef %61, i32 noundef %64, i32 noundef 1)
  %65 = load ptr, ptr %11, align 8, !tbaa !44
  %66 = getelementptr inbounds nuw i8, ptr %65, i32 1
  store ptr %66, ptr %11, align 8, !tbaa !44
  %67 = load ptr, ptr %11, align 8, !tbaa !44
  %68 = load ptr, ptr %17, align 8, !tbaa !138
  %69 = getelementptr inbounds nuw %struct.opj_tccp, ptr %68, i32 0, i32 5
  %70 = load i32, ptr %69, align 4, !tbaa !152
  call void @opj_write_bytes_LE(ptr noundef %67, i32 noundef %70, i32 noundef 1)
  %71 = load ptr, ptr %11, align 8, !tbaa !44
  %72 = getelementptr inbounds nuw i8, ptr %71, i32 1
  store ptr %72, ptr %11, align 8, !tbaa !44
  %73 = load ptr, ptr %12, align 8, !tbaa !134
  %74 = load i32, ptr %73, align 4, !tbaa !3
  %75 = sub i32 %74, 5
  %76 = load ptr, ptr %12, align 8, !tbaa !134
  store i32 %75, ptr %76, align 4, !tbaa !3
  %77 = load ptr, ptr %17, align 8, !tbaa !138
  %78 = getelementptr inbounds nuw %struct.opj_tccp, ptr %77, i32 0, i32 0
  %79 = load i32, ptr %78, align 4, !tbaa !145
  %80 = and i32 %79, 1
  %81 = icmp ne i32 %80, 0
  br i1 %81, label %82, label %128

82:                                               ; preds = %39
  %83 = load ptr, ptr %12, align 8, !tbaa !134
  %84 = load i32, ptr %83, align 4, !tbaa !3
  %85 = load ptr, ptr %17, align 8, !tbaa !138
  %86 = getelementptr inbounds nuw %struct.opj_tccp, ptr %85, i32 0, i32 1
  %87 = load i32, ptr %86, align 4, !tbaa !146
  %88 = icmp ult i32 %84, %87
  br i1 %88, label %89, label %92

89:                                               ; preds = %82
  %90 = load ptr, ptr %13, align 8, !tbaa !48
  %91 = call i32 (ptr, i32, ptr, ...) @opj_event_msg(ptr noundef %90, i32 noundef 1, ptr noundef @.str.311)
  store i32 0, ptr %7, align 4
  store i32 1, ptr %18, align 4
  br label %129

92:                                               ; preds = %82
  store i32 0, ptr %14, align 4, !tbaa !3
  br label %93

93:                                               ; preds = %117, %92
  %94 = load i32, ptr %14, align 4, !tbaa !3
  %95 = load ptr, ptr %17, align 8, !tbaa !138
  %96 = getelementptr inbounds nuw %struct.opj_tccp, ptr %95, i32 0, i32 1
  %97 = load i32, ptr %96, align 4, !tbaa !146
  %98 = icmp ult i32 %94, %97
  br i1 %98, label %99, label %120

99:                                               ; preds = %93
  %100 = load ptr, ptr %11, align 8, !tbaa !44
  %101 = load ptr, ptr %17, align 8, !tbaa !138
  %102 = getelementptr inbounds nuw %struct.opj_tccp, ptr %101, i32 0, i32 10
  %103 = load i32, ptr %14, align 4, !tbaa !3
  %104 = zext i32 %103 to i64
  %105 = getelementptr inbounds nuw [33 x i32], ptr %102, i64 0, i64 %104
  %106 = load i32, ptr %105, align 4, !tbaa !3
  %107 = load ptr, ptr %17, align 8, !tbaa !138
  %108 = getelementptr inbounds nuw %struct.opj_tccp, ptr %107, i32 0, i32 11
  %109 = load i32, ptr %14, align 4, !tbaa !3
  %110 = zext i32 %109 to i64
  %111 = getelementptr inbounds nuw [33 x i32], ptr %108, i64 0, i64 %110
  %112 = load i32, ptr %111, align 4, !tbaa !3
  %113 = shl i32 %112, 4
  %114 = add i32 %106, %113
  call void @opj_write_bytes_LE(ptr noundef %100, i32 noundef %114, i32 noundef 1)
  %115 = load ptr, ptr %11, align 8, !tbaa !44
  %116 = getelementptr inbounds nuw i8, ptr %115, i32 1
  store ptr %116, ptr %11, align 8, !tbaa !44
  br label %117

117:                                              ; preds = %99
  %118 = load i32, ptr %14, align 4, !tbaa !3
  %119 = add i32 %118, 1
  store i32 %119, ptr %14, align 4, !tbaa !3
  br label %93, !llvm.loop !549

120:                                              ; preds = %93
  %121 = load ptr, ptr %12, align 8, !tbaa !134
  %122 = load i32, ptr %121, align 4, !tbaa !3
  %123 = load ptr, ptr %17, align 8, !tbaa !138
  %124 = getelementptr inbounds nuw %struct.opj_tccp, ptr %123, i32 0, i32 1
  %125 = load i32, ptr %124, align 4, !tbaa !146
  %126 = sub i32 %122, %125
  %127 = load ptr, ptr %12, align 8, !tbaa !134
  store i32 %126, ptr %127, align 4, !tbaa !3
  br label %128

128:                                              ; preds = %120, %39
  store i32 1, ptr %7, align 4
  store i32 1, ptr %18, align 4
  br label %129

129:                                              ; preds = %128, %89, %36
  call void @llvm.lifetime.end.p0(i64 8, ptr %17) #10
  call void @llvm.lifetime.end.p0(i64 8, ptr %16) #10
  call void @llvm.lifetime.end.p0(i64 8, ptr %15) #10
  call void @llvm.lifetime.end.p0(i64 4, ptr %14) #10
  %130 = load i32, ptr %7, align 4
  ret i32 %130
}