; Function Attrs: nounwind uwtable
define internal fastcc range(i32 0, 2) i32 @opj_j2k_write_SPCod_SPCoc(ptr readonly captures(none) %.264.val, i32 noundef %0, ptr noundef %1, ptr noundef nonnull captures(none) %2, ptr noundef %3) unnamed_addr #3 {
  %5 = zext i32 %0 to i64
  %6 = getelementptr inbounds nuw %struct.opj_tcp, ptr %.264.val, i64 %5, i32 15
  %7 = load ptr, ptr %6, align 8, !tbaa !120
  %8 = load i32, ptr %2, align 4, !tbaa !125
  %9 = icmp ult i32 %8, 5
  br i1 %9, label %10, label %12

10:                                               ; preds = %4
  %11 = tail call i32 (ptr, i32, ptr, ...) @opj_event_msg(ptr noundef %3, i32 noundef 1, ptr noundef nonnull @.str.311) #21
  br label %55

12:                                               ; preds = %4
  %13 = getelementptr inbounds nuw i8, ptr %7, i64 4
  %14 = load i32, ptr %13, align 4, !tbaa !132
  %15 = add i32 %14, -1
  tail call void @opj_write_bytes_LE(ptr noundef %1, i32 noundef %15, i32 noundef 1) #21
  %16 = getelementptr inbounds nuw i8, ptr %1, i64 1
  %17 = getelementptr inbounds nuw i8, ptr %7, i64 8
  %18 = load i32, ptr %17, align 4, !tbaa !133
  %19 = add i32 %18, -2
  tail call void @opj_write_bytes_LE(ptr noundef nonnull %16, i32 noundef %19, i32 noundef 1) #21
  %20 = getelementptr inbounds nuw i8, ptr %1, i64 2
  %21 = getelementptr inbounds nuw i8, ptr %7, i64 12
  %22 = load i32, ptr %21, align 4, !tbaa !134
  %23 = add i32 %22, -2
  tail call void @opj_write_bytes_LE(ptr noundef nonnull %20, i32 noundef %23, i32 noundef 1) #21
  %24 = getelementptr inbounds nuw i8, ptr %1, i64 3
  %25 = getelementptr inbounds nuw i8, ptr %7, i64 16
  %26 = load i32, ptr %25, align 4, !tbaa !136
  tail call void @opj_write_bytes_LE(ptr noundef nonnull %24, i32 noundef %26, i32 noundef 1) #21
  %27 = getelementptr inbounds nuw i8, ptr %1, i64 4
  %28 = getelementptr inbounds nuw i8, ptr %7, i64 20
  %29 = load i32, ptr %28, align 4, !tbaa !138
  tail call void @opj_write_bytes_LE(ptr noundef nonnull %27, i32 noundef %29, i32 noundef 1) #21
  %30 = load i32, ptr %2, align 4, !tbaa !125
  %31 = add i32 %30, -5
  store i32 %31, ptr %2, align 4, !tbaa !125
  %32 = load i32, ptr %7, align 4, !tbaa !131
  %33 = and i32 %32, 1
  %.not = icmp eq i32 %33, 0
  br i1 %.not, label %55, label %34

34:                                               ; preds = %12
  %35 = getelementptr inbounds nuw i8, ptr %1, i64 5
  %36 = load i32, ptr %13, align 4, !tbaa !132
  %37 = icmp ult i32 %31, %36
  br i1 %37, label %40, label %.preheader

.preheader:                                       ; preds = %34
  %.not3 = icmp eq i32 %36, 0
  br i1 %.not3, label %._crit_edge, label %.lr.ph

.lr.ph:                                           ; preds = %.preheader
  %38 = getelementptr inbounds nuw i8, ptr %7, i64 812
  %39 = getelementptr inbounds nuw i8, ptr %7, i64 944
  br label %42

40:                                               ; preds = %34
  %41 = tail call i32 (ptr, i32, ptr, ...) @opj_event_msg(ptr noundef %3, i32 noundef 1, ptr noundef nonnull @.str.311) #21
  br label %55

42:                                               ; preds = %.lr.ph, %42
  %indvars.iv = phi i64 [ 0, %.lr.ph ], [ %indvars.iv.next, %42 ]
  %.0402 = phi ptr [ %35, %.lr.ph ], [ %49, %42 ]
  %43 = getelementptr inbounds nuw [33 x i32], ptr %38, i64 0, i64 %indvars.iv
  %44 = load i32, ptr %43, align 4, !tbaa !125
  %45 = getelementptr inbounds nuw [33 x i32], ptr %39, i64 0, i64 %indvars.iv
  %46 = load i32, ptr %45, align 4, !tbaa !125
  %47 = shl i32 %46, 4
  %48 = add i32 %47, %44
  tail call void @opj_write_bytes_LE(ptr noundef nonnull %.0402, i32 noundef %48, i32 noundef 1) #21
  %49 = getelementptr inbounds nuw i8, ptr %.0402, i64 1
  %indvars.iv.next = add nuw nsw i64 %indvars.iv, 1
  %50 = load i32, ptr %13, align 4, !tbaa !132
  %51 = zext i32 %50 to i64
  %52 = icmp samesign ult i64 %indvars.iv.next, %51
  br i1 %52, label %42, label %._crit_edge.loopexit, !llvm.loop !509

._crit_edge.loopexit:                             ; preds = %42
  %.pre = load i32, ptr %2, align 4, !tbaa !125
  br label %._crit_edge

._crit_edge:                                      ; preds = %._crit_edge.loopexit, %.preheader
  %53 = phi i32 [ %31, %.preheader ], [ %.pre, %._crit_edge.loopexit ]
  %.lcssa = phi i32 [ 0, %.preheader ], [ %50, %._crit_edge.loopexit ]
  %54 = sub i32 %53, %.lcssa
  store i32 %54, ptr %2, align 4, !tbaa !125
  br label %55

55:                                               ; preds = %12, %._crit_edge, %40, %10
  %.0 = phi i32 [ 0, %10 ], [ 0, %40 ], [ 1, %._crit_edge ], [ 1, %12 ]
  ret i32 %.0
}